target datalayout = "e-m:e-p270:32:32-p271:32:32-p272:64:64-i64:64-i128:128-f80:128-n8:16:32:64-S128"
target triple = "x86_64-pc-linux-gnu"

@curr_functions_lib_ctx = internal global ptr null, align 8
@engines = internal global ptr null, align 8

; Function Attrs: nounwind uwtable
define dso_local i32 @functionsInit() #1 {
  %1 = alloca i32, align 4
  %2 = call ptr @dictCreate(ptr noundef @engineDictType)
  store ptr %2, ptr @engines, align 8, !tbaa !5
  %3 = call i32 @luaEngineInitEngine()
  %4 = icmp ne i32 %3, 0
  br i1 %4, label %5, label %6

5:                                                ; preds = %0
  store i32 -1, ptr %1, align 4
  br label %8

6:                                                ; preds = %0
  %7 = call ptr @functionsLibCtxCreate()
  store ptr %7, ptr @curr_functions_lib_ctx, align 8, !tbaa !38
  store i32 0, ptr %1, align 4
  br label %8

8:                                                ; preds = %6, %5
  %9 = load i32, ptr %1, align 4
  ret i32 %9
}