; Function Attrs: nounwind uwtable
define dso_local range(i32 -1, 1) i32 @functionsInit() local_unnamed_addr #1 {
  %1 = tail call ptr @dictCreate(ptr noundef nonnull @engineDictType) #12
  store ptr %1, ptr @engines, align 8, !tbaa !42
  %2 = tail call i32 @luaEngineInitEngine() #12
  %.not = icmp eq i32 %2, 0
  br i1 %.not, label %3, label %5

3:                                                ; preds = %0
  %4 = tail call ptr @functionsLibCtxCreate()
  store ptr %4, ptr @curr_functions_lib_ctx, align 8, !tbaa !40
  br label %5

5:                                                ; preds = %0, %3
  %.0 = phi i32 [ 0, %3 ], [ -1, %0 ]
  ret i32 %.0
}